; Function Attrs: mustprogress nounwind uwtable
define internal fastcc void @_ZN12_GLOBAL__N_111DeclPrinter14VisitLabelDeclEPN5clang9LabelDeclE(ptr nonnull %.0.val, ptr noundef nonnull %0) unnamed_addr #0 align 2 {
  tail call void @_ZNK5clang9NamedDecl9printNameERN4llvm11raw_ostreamE(ptr noundef nonnull align 8 dereferenceable(48) %0, ptr noundef nonnull align 8 dereferenceable(48) %.0.val) #14
  %2 = getelementptr inbounds nuw i8, ptr %.0.val, i64 24
  %3 = load ptr, ptr %2, align 8
  %4 = getelementptr inbounds nuw i8, ptr %.0.val, i64 32
  %5 = load ptr, ptr %4, align 8
  %6 = icmp eq ptr %3, %5
  br i1 %6, label %7, label %9

7:                                                ; preds = %1
  %8 = tail call noundef nonnull align 8 dereferenceable(48) ptr @_ZN4llvm11raw_ostream5writeEPKcm(ptr noundef nonnull align 8 dereferenceable(48) %.0.val, ptr noundef nonnull @.str.131, i64 noundef 1) #14
  br label %_ZN4llvm11raw_ostreamlsEPKc.exit

9:                                                ; preds = %1
  store i8 58, ptr %5, align 1
  %10 = load ptr, ptr %4, align 8
  %11 = getelementptr inbounds i8, ptr %10, i64 1
  store ptr %11, ptr %4, align 8
  br label %_ZN4llvm11raw_ostreamlsEPKc.exit

_ZN4llvm11raw_ostreamlsEPKc.exit:                 ; preds = %7, %9
  ret void
}